#include <math.h>
#include <stdio.h>
#include <stdlib.h>
#include <string.h>

int main(){
    double n,k;
    int i,j=0;
    int p,q;
    scanf("%lf",&n);
    char sz[2][1000];
    scanf("%s %s",sz[0],sz[1]); 
    p=strlen(sz[0]);
    q=strlen(sz[1]);
    if(p!=q){
        printf("error");
        return 0;
    }
   for(i=0;i<q;i++){
       if(sz[0][i]!='A'&&sz[0][i]!='T'&&sz[0][i]!='C'&&sz[0][i]!='G'){
           printf("error");
           return 0;
       } if(sz[1][i]!='A'&&sz[1][i]!='T'&&sz[1][i]!='C'&&sz[1][i]!='G'){
           printf("error");
           return 0;
       }
   }
    for(i=0;sz[0][i]!='\0';i++){
        if(sz[0][i]==sz[1][i]){
            j++;
        }
    }k=1.0*j/i;
    if(k>n){
        printf("yes");
    }else{
        printf("no");
    }
    return 0;
}
