; ModuleID = '5/1238.c'
source_filename = "5/1238.c"
target datalayout = "e-m:e-p270:32:32-p271:32:32-p272:64:64-i64:64-f80:128-n8:16:32:64-S128"
target triple = "x86_64-pc-linux-gnu"

@.str = private unnamed_addr constant [4 x i8] c"%lf\00", align 1
@.str.1 = private unnamed_addr constant [6 x i8] c"%s %s\00", align 1
@.str.2 = private unnamed_addr constant [6 x i8] c"error\00", align 1
@.str.3 = private unnamed_addr constant [4 x i8] c"yes\00", align 1
@.str.4 = private unnamed_addr constant [3 x i8] c"no\00", align 1

; Function Attrs: noinline nounwind uwtable
define dso_local i32 @main() #0 {
  %1 = alloca i32, align 4
  %2 = alloca double, align 8
  %3 = alloca double, align 8
  %4 = alloca i32, align 4
  %5 = alloca i32, align 4
  %6 = alloca i32, align 4
  %7 = alloca i32, align 4
  %8 = alloca [2 x [1000 x i8]], align 16
  store i32 0, i32* %1, align 4
  store i32 0, i32* %5, align 4
  %9 = call i32 (i8*, ...) @__isoc99_scanf(i8* getelementptr inbounds ([4 x i8], [4 x i8]* @.str, i64 0, i64 0), double* %2)
  %10 = getelementptr inbounds [2 x [1000 x i8]], [2 x [1000 x i8]]* %8, i64 0, i64 0
  %11 = getelementptr inbounds [1000 x i8], [1000 x i8]* %10, i64 0, i64 0
  %12 = getelementptr inbounds [2 x [1000 x i8]], [2 x [1000 x i8]]* %8, i64 0, i64 1
  %13 = getelementptr inbounds [1000 x i8], [1000 x i8]* %12, i64 0, i64 0
  %14 = call i32 (i8*, ...) @__isoc99_scanf(i8* getelementptr inbounds ([6 x i8], [6 x i8]* @.str.1, i64 0, i64 0), i8* %11, i8* %13)
  %15 = getelementptr inbounds [2 x [1000 x i8]], [2 x [1000 x i8]]* %8, i64 0, i64 0
  %16 = getelementptr inbounds [1000 x i8], [1000 x i8]* %15, i64 0, i64 0
  %17 = call i64 @strlen(i8* %16) #3
  %18 = trunc i64 %17 to i32
  store i32 %18, i32* %6, align 4
  %19 = getelementptr inbounds [2 x [1000 x i8]], [2 x [1000 x i8]]* %8, i64 0, i64 1
  %20 = getelementptr inbounds [1000 x i8], [1000 x i8]* %19, i64 0, i64 0
  %21 = call i64 @strlen(i8* %20) #3
  %22 = trunc i64 %21 to i32
  store i32 %22, i32* %7, align 4
  %23 = load i32, i32* %6, align 4
  %24 = load i32, i32* %7, align 4
  %25 = icmp ne i32 %23, %24
  br i1 %25, label %26, label %28

26:                                               ; preds = %0
  %27 = call i32 (i8*, ...) @printf(i8* getelementptr inbounds ([6 x i8], [6 x i8]* @.str.2, i64 0, i64 0))
  store i32 0, i32* %1, align 4
  br label %150

28:                                               ; preds = %0
  store i32 0, i32* %4, align 4
  br label %29

29:                                               ; preds = %102, %28
  %30 = load i32, i32* %4, align 4
  %31 = load i32, i32* %7, align 4
  %32 = icmp slt i32 %30, %31
  br i1 %32, label %33, label %105

33:                                               ; preds = %29
  %34 = getelementptr inbounds [2 x [1000 x i8]], [2 x [1000 x i8]]* %8, i64 0, i64 0
  %35 = load i32, i32* %4, align 4
  %36 = sext i32 %35 to i64
  %37 = getelementptr inbounds [1000 x i8], [1000 x i8]* %34, i64 0, i64 %36
  %38 = load i8, i8* %37, align 1
  %39 = sext i8 %38 to i32
  %40 = icmp ne i32 %39, 65
  br i1 %40, label %41, label %67

41:                                               ; preds = %33
  %42 = getelementptr inbounds [2 x [1000 x i8]], [2 x [1000 x i8]]* %8, i64 0, i64 0
  %43 = load i32, i32* %4, align 4
  %44 = sext i32 %43 to i64
  %45 = getelementptr inbounds [1000 x i8], [1000 x i8]* %42, i64 0, i64 %44
  %46 = load i8, i8* %45, align 1
  %47 = sext i8 %46 to i32
  %48 = icmp ne i32 %47, 84
  br i1 %48, label %49, label %67

49:                                               ; preds = %41
  %50 = getelementptr inbounds [2 x [1000 x i8]], [2 x [1000 x i8]]* %8, i64 0, i64 0
  %51 = load i32, i32* %4, align 4
  %52 = sext i32 %51 to i64
  %53 = getelementptr inbounds [1000 x i8], [1000 x i8]* %50, i64 0, i64 %52
  %54 = load i8, i8* %53, align 1
  %55 = sext i8 %54 to i32
  %56 = icmp ne i32 %55, 67
  br i1 %56, label %57, label %67

57:                                               ; preds = %49
  %58 = getelementptr inbounds [2 x [1000 x i8]], [2 x [1000 x i8]]* %8, i64 0, i64 0
  %59 = load i32, i32* %4, align 4
  %60 = sext i32 %59 to i64
  %61 = getelementptr inbounds [1000 x i8], [1000 x i8]* %58, i64 0, i64 %60
  %62 = load i8, i8* %61, align 1
  %63 = sext i8 %62 to i32
  %64 = icmp ne i32 %63, 71
  br i1 %64, label %65, label %67

65:                                               ; preds = %57
  %66 = call i32 (i8*, ...) @printf(i8* getelementptr inbounds ([6 x i8], [6 x i8]* @.str.2, i64 0, i64 0))
  store i32 0, i32* %1, align 4
  br label %150

67:                                               ; preds = %57, %49, %41, %33
  %68 = getelementptr inbounds [2 x [1000 x i8]], [2 x [1000 x i8]]* %8, i64 0, i64 1
  %69 = load i32, i32* %4, align 4
  %70 = sext i32 %69 to i64
  %71 = getelementptr inbounds [1000 x i8], [1000 x i8]* %68, i64 0, i64 %70
  %72 = load i8, i8* %71, align 1
  %73 = sext i8 %72 to i32
  %74 = icmp ne i32 %73, 65
  br i1 %74, label %75, label %101

75:                                               ; preds = %67
  %76 = getelementptr inbounds [2 x [1000 x i8]], [2 x [1000 x i8]]* %8, i64 0, i64 1
  %77 = load i32, i32* %4, align 4
  %78 = sext i32 %77 to i64
  %79 = getelementptr inbounds [1000 x i8], [1000 x i8]* %76, i64 0, i64 %78
  %80 = load i8, i8* %79, align 1
  %81 = sext i8 %80 to i32
  %82 = icmp ne i32 %81, 84
  br i1 %82, label %83, label %101

83:                                               ; preds = %75
  %84 = getelementptr inbounds [2 x [1000 x i8]], [2 x [1000 x i8]]* %8, i64 0, i64 1
  %85 = load i32, i32* %4, align 4
  %86 = sext i32 %85 to i64
  %87 = getelementptr inbounds [1000 x i8], [1000 x i8]* %84, i64 0, i64 %86
  %88 = load i8, i8* %87, align 1
  %89 = sext i8 %88 to i32
  %90 = icmp ne i32 %89, 67
  br i1 %90, label %91, label %101

91:                                               ; preds = %83
  %92 = getelementptr inbounds [2 x [1000 x i8]], [2 x [1000 x i8]]* %8, i64 0, i64 1
  %93 = load i32, i32* %4, align 4
  %94 = sext i32 %93 to i64
  %95 = getelementptr inbounds [1000 x i8], [1000 x i8]* %92, i64 0, i64 %94
  %96 = load i8, i8* %95, align 1
  %97 = sext i8 %96 to i32
  %98 = icmp ne i32 %97, 71
  br i1 %98, label %99, label %101

99:                                               ; preds = %91
  %100 = call i32 (i8*, ...) @printf(i8* getelementptr inbounds ([6 x i8], [6 x i8]* @.str.2, i64 0, i64 0))
  store i32 0, i32* %1, align 4
  br label %150

101:                                              ; preds = %91, %83, %75, %67
  br label %102

102:                                              ; preds = %101
  %103 = load i32, i32* %4, align 4
  %104 = add nsw i32 %103, 1
  store i32 %104, i32* %4, align 4
  br label %29

105:                                              ; preds = %29
  store i32 0, i32* %4, align 4
  br label %106

106:                                              ; preds = %132, %105
  %107 = getelementptr inbounds [2 x [1000 x i8]], [2 x [1000 x i8]]* %8, i64 0, i64 0
  %108 = load i32, i32* %4, align 4
  %109 = sext i32 %108 to i64
  %110 = getelementptr inbounds [1000 x i8], [1000 x i8]* %107, i64 0, i64 %109
  %111 = load i8, i8* %110, align 1
  %112 = sext i8 %111 to i32
  %113 = icmp ne i32 %112, 0
  br i1 %113, label %114, label %135

114:                                              ; preds = %106
  %115 = getelementptr inbounds [2 x [1000 x i8]], [2 x [1000 x i8]]* %8, i64 0, i64 0
  %116 = load i32, i32* %4, align 4
  %117 = sext i32 %116 to i64
  %118 = getelementptr inbounds [1000 x i8], [1000 x i8]* %115, i64 0, i64 %117
  %119 = load i8, i8* %118, align 1
  %120 = sext i8 %119 to i32
  %121 = getelementptr inbounds [2 x [1000 x i8]], [2 x [1000 x i8]]* %8, i64 0, i64 1
  %122 = load i32, i32* %4, align 4
  %123 = sext i32 %122 to i64
  %124 = getelementptr inbounds [1000 x i8], [1000 x i8]* %121, i64 0, i64 %123
  %125 = load i8, i8* %124, align 1
  %126 = sext i8 %125 to i32
  %127 = icmp eq i32 %120, %126
  br i1 %127, label %128, label %131

128:                                              ; preds = %114
  %129 = load i32, i32* %5, align 4
  %130 = add nsw i32 %129, 1
  store i32 %130, i32* %5, align 4
  br label %131

131:                                              ; preds = %128, %114
  br label %132

132:                                              ; preds = %131
  %133 = load i32, i32* %4, align 4
  %134 = add nsw i32 %133, 1
  store i32 %134, i32* %4, align 4
  br label %106

135:                                              ; preds = %106
  %136 = load i32, i32* %5, align 4
  %137 = sitofp i32 %136 to double
  %138 = fmul double 1.000000e+00, %137
  %139 = load i32, i32* %4, align 4
  %140 = sitofp i32 %139 to double
  %141 = fdiv double %138, %140
  store double %141, double* %3, align 8
  %142 = load double, double* %3, align 8
  %143 = load double, double* %2, align 8
  %144 = fcmp ogt double %142, %143
  br i1 %144, label %145, label %147

145:                                              ; preds = %135
  %146 = call i32 (i8*, ...) @printf(i8* getelementptr inbounds ([4 x i8], [4 x i8]* @.str.3, i64 0, i64 0))
  br label %149

147:                                              ; preds = %135
  %148 = call i32 (i8*, ...) @printf(i8* getelementptr inbounds ([3 x i8], [3 x i8]* @.str.4, i64 0, i64 0))
  br label %149

149:                                              ; preds = %147, %145
  store i32 0, i32* %1, align 4
  br label %150

150:                                              ; preds = %149, %99, %65, %26
  %151 = load i32, i32* %1, align 4
  ret i32 %151
}

declare dso_local i32 @__isoc99_scanf(i8*, ...) #1

; Function Attrs: nounwind readonly
declare dso_local i64 @strlen(i8*) #2

declare dso_local i32 @printf(i8*, ...) #1


!llvm.module.flags = !{!0}
!llvm.ident = !{!1}

!0 = !{i32 1, !"wchar_size", i32 4}
!1 = !{!"clang version 10.0.0-4ubuntu1 "}
